(lp1
(lp2
Va
aV.
aVon
p3
aVof
p4
aVthe
p5
aVin
p6
aVwith
p7
aVand
p8
aVis
p9
aVman
p10
aVto
p11
aVsitting
p12
aVan
p13
aVtwo
p14
aVat
p15
aVstanding
p16
aVpeople
p17
aVare
p18
aV,
aVnext
p19
aVwhite
p20
aVwoman
p21
aVstreet
p22
aVtable
p23
aVholding
p24
aVthat
p25
aVit
p26
aVlarge
p27
aVsome
p28
aVperson
p29
aVtop
p30
aVdown
p31
aVgroup
p32
aVup
p33
aVfield
p34
aVtennis
p35
aVtrain
p36
aVsmall
p37
aVnear
p38
aVblack
p39
aVfront
p40
aVhis
p41
aVcat
p42
aVriding
p43
aVdog
p44
aVplate
p45
aVroom
p46
aVred
p47
aVyoung
p48
aVby
p49
aVwater
p50
aVhas
p51
aVplaying
p52
aVbathroom
p53
aVsign
p54
aVbaseball
p55
aVwalking
p56
aVwhile
p57
aVblue
p58
aVbuilding
p59
aVkitchen
p60
aVfood
p61
aVthere
p62
aVbus
p63
aVgreen
p64
aVpizza
p65
aVgrass
p66
aVside
p67
aVparked
p68
aVbed
p69
aVclock
p70
aVother
p71
aVlooking
p72
aVbeach
p73
aVsnow
p74
aVtoilet
p75
aVfor
p76
aVball
p77
aVcouple
p78
aVthree
p79
aVcity
p80
aVroad
p81
aVboy
p82
aVmen
p83
aVwearing
p84
aVover
p85
aVflying
p86
aVout
p87
aVher
p88
aVplayer
p89
aVseveral
p90
aVbench
p91
aVsits
p92
aVgame
p93
aVskateboard
p94
aVgirl
p95
aVlaying
p96
aVfrom
p97
aVpicture
p98
aVlaptop
p99
aVwooden
p100
aVarea
p101
aVbear
p102
aVhorse
p103
aVcomputer
p104
aVbrown
p105
aVyellow
p106
aVthrough
p107
aVtheir
p108
aVphone
p109
aVfrisbee
p110
aVeating
p111
aVcake
p112
aVaround
p113
aVoutside
p114
aVsink
p115
aVone
p116
aVboard
p117
aVgiraffe
p118
aVmotorcycle
p119
aVdesk
p120
aVumbrella
p121
aVas
p122
aVliving
p123
aVwindow
p124
aVtree
p125
aVtruck
p126
aVwall
p127
aVmany
p128
aVeach
p129
aVopen
p130
aVpark
p131
aVcovered
p132
aVtrees
p133
aVcar
p134
aVair
p135
aVvery
p136
aVelephant
p137
aVthis
p138
aVunder
p139
aVclose
p140
aVfilled
p141
aVold
p142
aVlittle
p143
aVcourt
p144
aVbehind
p145
aVstop
p146
aVsurfboard
p147
aVfire
p148
aVits
p149
aVtogether
p150
aVsky
p151
aVkite
p152
aVinto
p153
aVchair
p154
aVbackground
p155
aVchild
p156
aVinside
p157
aVlight
p158
aVboat
p159
aVbird
p160
aVbunch
p161
aVbig
p162
aVview
p163
aVskis
p164
aVocean
p165
aVsheep
p166
aVback
p167
aVcell
p168
aVglass
p169
aVstands
p170
aVtower
p171
aVtraffic
p172
aVcouch
p173
aVbowl
p174
aVorange
p175
aVsidewalk
p176
aVdifferent
p177
aVhand
p178
aVmirror
p179
aVzebra
p180
aVsandwich
p181
aVhydrant
p182
aVphoto
p183
aVfence
p184
aVbat
p185
aVshirt
p186
aVparking
p187
aVwave
p188
aVteddy
p189
aVcounter
p190
aVtall
p191
aVlot
p192
aVtracks
p193
aVfloor
p194
aVflowers
p195
aVcars
p196
aVwomen
p197
aVvase
p198
aVstand
p199
aVzebras
p200
aVracket
p201
aVvegetables
p202
aVtie
p203
aVgiraffes
p204
aVanother
p205
aVground
p206
aVbaby
p207
aVgrassy
p208
aVhorses
p209
aVstation
p210
aVtaking
p211
aVelephants
p212
aVday
p213
aVbeing
p214
aVairplane
p215
aValong
p216
aVfull
p217
aVoff
p218
aVmiddle
p219
aVplane
p220
aVimage
p221
aVbananas
p222
aVfour
p223
aVsigns
p224
aVready
p225
aVsit
p226
aVbroccoli
p227
aVhill
p228
aVluggage
p229
aVbike
p230
aVlong
p231
aVdirt
p232
aVabove
p233
aVpiece
p234
aVdogs
p235
aVstuffed
p236
aVdriving
p237
aVhead
p238
aVgrazing
p239
aVcamera
p240
aVcows
p241
aVslope
p242
aVhanging
p243
aVacross
p244
aVbeside
p245
aVsnowy
p246
aVhot
p247
aVchildren
p248
aVmountain
p249
aVpole
p250
aVwine
p251
aVwii
p252
aVthem
p253
aVrefrigerator
p254
aVglasses
p255
aVbuildings
p256
aVskiing
p257
aVtrack
p258
aVdoing
p259
aVstove
p260
aVherd
p261
aVholds
p262
aVpink
p263
aVempty
p264
aVumbrellas
p265
aVduring
p266
aVsoccer
p267
aVhat
p268
aVoven
p269
aVcow
p270
aVlooks
p271
aVdisplay
p272
aVkeyboard
p273
aVfruit
p274
aVwatching
p275
aVski
p276
aVsuit
p277
aVsmiling
p278
aVtraveling
p279
aVgoing
p280
aVboats
p281
aVcorner
p282
aVbirds
p283
aVskate
p284
aVpair
p285
aVtrick
p286
aVtv
p287
aVdoor
p288
aVcrowd
p289
aVsurf
p290
aVjumping
p291
aVbrick
p292
aVbox
p293
aVusing
p294
aVtelevision
p295
aVvideo
p296
aVposing
p297
aVcutting
p298
aVchairs
p299
aVcolorful
p300
aVpaper
p301
aVtopped
p302
aVagainst
p303
aVbody
p304
aVgetting
p305
aVriver
p306
aVguy
p307
aVset
p308
aVcup
p309
aVanimals
p310
aVlady
p311
aVwho
p312
aVvarious
p313
aVplates
p314
aVcarrying
p315
aVbears
p316
aVkites
p317
aVmotorcycles
p318
aVall
p319
aVnight
p320
aVhit
p321
aVsomething
p322
aVtalking
p323
aVremote
p324
aVairport
p325
aVswinging
p326
aVracquet
p327
aVlots
p328
aVface
p329
aVrestaurant
p330
aVbedroom
p331
aVlights
p332
aVwaiting
p333
aVshower
p334
aVmetal
p335
aVcoffee
p336
aVcheese
p337
aVit's
p338
aVrunning
p339
aVbusy
p340
aVbanana
p341
aVsurfer
p342
aVdouble
p343
aVintersection
p344
aVbe
p345
aVabout
p346
aVskier
p347
aVwalk
p348
aVmeat
p349
aVbicycle
p350
aVitems
p351
aVhouse
p352
aVtray
p353
aVwood
p354
aVline
p355
aVplayers
p356
aVlying
p357
aVsurfing
p358
aVhome
p359
aVbridge
p360
aVsomeone
p361
aVsleeping
p362
aVhigh
p363
aVsnowboard
p364
aVstore
p365
aVlike
p366
aVshown
p367
aVmale
p368
aVdressed
p369
aVsuitcase
p370
aVpassenger
p371
aVmouth
p372
aVskateboarder
p373
aVdonuts
p374
aVhands
p375
aVramp
p376
aVkids
p377
aVscreen
p378
aVhalf
p379
aVtub
p380
aVmade
p381
aVbag
p382
aVbatter
p383
aVzoo
p384
aVlook
p385
aVadult
p386
aVbook
p387
aVgray
p388
aVcut
p389
aVtoy
p390
aVrides
p391
aVscissors
p392
aVbetween
p393
aVbottle
p394
aVrow
p395
aVshowing
p396
aVslice
p397
aVcolored
p398
aVanimal
p399
aVpulling
p400
aVrunway
p401
aVsand
p402
aVjet
p403
aVhe
p404
aVenclosure
p405
aVhim
p406
aVdark
p407
aVmouse
p408
aVhair
p409
aVsurrounded
p410
aVway
p411
aVnumber
p412
aVmicrowave
p413
aVseat
p414
aVpile
p415
aVboys
p416
aVplay
p417
aVpreparing
p418
aVfew
p419
aVbread
p420
aVlake
p421
aVknife
p422
aVdecorated
p423
aVcabinets
p424
aVpast
p425
aVcarrots
p426
aVlined
p427
aVsilver
p428
aVforest
p429
aVgirls
p430
aVoutdoor
p431
aVdrink
p432
aVskiers
p433
aVbuses
p434
aVhave
p435
aVcoming
p436
aVjacket
p437
aVpan
p438
aVwaves
p439
aVgrey
p440
aVkid
p441
aVfurniture
p442
aVpurple
p443
aVdisplayed
p444
aVolder
p445
aVmeal
p446
aVpainted
p447
aVoranges
p448
aVstone
p449
aVwalks
p450
aVmonitor
p451
aVpublic
p452
aVattached
p453
aVfork
p454
aVswing
p455
aVwindows
p456
aVdecker
p457
aVcloudy
p458
aVthrowing
p459
aVmeter
p460
aVleaning
p461
aVscene
p462
aVmaking
p463
aVstopped
p464
aVbirthday
p465
aVshelf
p466
aVcross
p467
aVbranch
p468
aVrocks
p469
aVchocolate
p470
aVwalls
p471
aVonto
p472
aVlush
p473
aVtowards
p474
aVsurfboards
p475
aVrain
p476
aVclean
p477
aVstatue
p478
aVdish
p479
aVlit
p480
aVhitting
p481
aVmarket
p482
aVtables
p483
aVcrossing
p484
aVdining
p485
aVclear
p486
aVedge
p487
aVcats
p488
aVphotograph
p489
aVsunny
p490
aVbright
p491
aVsalad
p492
aVsun
p493
aVmoving
p494
aVfemale
p495
aVoffice
p496
aVcan
p497
aVresting
p498
aVride
p499
aVseen
p500
aVrail
p501
aVblanket
p502
aVbikes
p503
aVno
p504
aVapples
p505
aVwatch
p506
aVdrinking
p507
aVperched
p508
aVslices
p509
aVflower
p510
aVbeautiful
p511
aVunderneath
p512
aVmountains
p513
aVdress
p514
aVrock
p515
aVyard
p516
aVbeen
p517
aVbooks
p518
aVpictures
p519
aVpieces
p520
aVplatform
p521
aVcomputers
p522
aVcontroller
p523
aVleaves
p524
aVfries
p525
aVmotor
p526
aVhotel
p527
aVbeer
p528
aVsetting
p529
aVbath
p530
aVcase
p531
aVplaced
p532
aVplastic
p533
aVwet
p534
aVcatch
p535
aVteeth
p536
aVbasket
p537
aVtime
p538
aVtrying
p539
aVshore
p540
aVfruits
p541
aVdonut
p542
aVmultiple
p543
aVcart
p544
aVcountry
p545
aVworking
p546
aVmodern
p547
aVplants
p548
aVtrains
p549
aVcooking
p550
aVnice
p551
aVeat
p552
aVapple
p553
aVshoes
p554
aVbenches
p555
aVsnowboarder
p556
aVpassing
p557
aVhelmet
p558
aVshot
p559
aVtiled
p560
aVpizzas
p561
aVlaptops
p562
aVgraffiti
p563
aVhaving
p564
aVpitch
p565
aVfresh
p566
aVeaten
p567
aVsandy
p568
aVtypes
p569
aVpost
p570
aVlap
p571
aVsurface
p572
aVmounted
p573
aVor
p574
aVcurb
p575
aVdinner
p576
aVcellphone
p577
aVthey
p578
aVuniform
p579
aVpitcher
p580
aVnintendo
p581
aVothers
p582
aVskateboarding
p583
aVpot
p584
aVtoppings
p585
aVpath
p586
aVplant
p587
aVfamily
p588
aVdoughnuts
p589
aVengine
p590
aVvariety
p591
aVwatches
p592
aVvehicle
p593
aVshows
p594
aVboards
p595
aVcatcher
p596
aVbottles
p597
aVreading
p598
aVbrushing
p599
aVpolar
p600
aVcontaining
p601
aVwoods
p602
aVsingle
p603
aVgear
p604
aVpassengers
p605
aVtile
p606
aVtoothbrush
p607
aVappliances
p608
aVchicken
p609
aVdoughnut
p610
aVvases
p611
aVtrucks
p612
aVjust
p613
aVdock
p614
aVlamp
p615
aVphones
p616
aVcute
p617
aVcontrol
p618
aVdry
p619
aVcarriage
p620
aVenjoying
p621
aVbase
p622
aVtakes
p623
aVgathered
p624
aVbathtub
p625
aVjump
p626
aVguys
p627
aVneck
p628
aVpretty
p629
aVtown
p630
aVbowls
p631
aVmatch
p632
aVrack
p633
aVsteel
p634
aVpillows
p635
aVflies
p636
aVbags
p637
aVplace
p638
aVperforming
p639
aVtricks
p640
aVpen
p641
aVconcrete
p642
aVleft
p643
aVend
p644
aVschool
p645
aVfenced
p646
aVvehicles
p647
aVcandles
p648
aVrailroad
p649
aVserve
p650
aVbrush
p651
aVcatching
p652
aVsinks
p653
aVincluding
p654
aVpasture
p655
aVbelow
p656
aVcattle
p657
aVsurfers
p658
aVdirty
p659
aVshaped
p660
aVsauce
p661
aVafter
p662
aVtake
p663
aVwhere
p664
aVchurch
p665
aVasian
p666
aVsuitcases
p667
aVfly
p668
aVrice
p669
aVbicycles
p670
aValone
p671
aVcontainer
p672
aVhuge
p673
aVsmiles
p674
aVshop
p675
aVpulled
p676
aVnearby
p677
aVstriped
p678
aVfireplace
p679
aVfridge
p680
aVboxes
p681
aVshe
p682
aVhay
p683
aVsofa
p684
aVcrowded
p685
aVfeeding
p686
aVflat
p687
aVbar
p688
aVprepares
p689
aVequipment
p690
aVpoles
p691
aVgiant
p692
aVdrinks
p693
aVskateboards
p694
aVdistance
p695
aVsticking
p696
aVposes
p697
aVbeds
p698
aVfloating
p699
aVreaching
p700
aVserved
p701
aVdishes
p702
aVfive
p703
aVplays
p704
aVflag
p705
aVtaken
p706
aVright
p707
aVlays
p708
aVpillow
p709
aVputting
p710
aVwedding
p711
aVstall
p712
aVspoon
p713
aVwild
p714
aVswimming
p715
aVtrunk
p716
aVnot
p717
aVvintage
p718
aVserving
p719
aVprofessional
p720
aVstaring
p721
aVwell
p722
aVstyle
p723
aVreflection
p724
aVtowel
p725
aVsandwiches
p726
aVlegs
p727
aVbushes
p728
aVboth
p729
aVkitten
p730
aVsliced
p731
aVpotatoes
p732
aVtarmac
p733
aVtrail
p734
aVcream
p735
aVpainting
p736
aVaway
p737
aVsoup
p738
aVatop
p739
aVflock
p740
aVpool
p741
aVplanes
p742
aVcenter
p743
aVdoors
p744
aVcooked
p745
aVclocks
p746
aVbreakfast
p747
aVfeet
p748
aVarm
p749
aVhotdog
p750
aVpolice
p751
aVdocked
p752
aVshow
p753
aVstacked
p754
aVairplanes
p755
aVrun
p756
aVcement
p757
aVsquare
p758
aVround
p759
aVcommercial
p760
aVfrench
p761
aVsubway
p762
aVwork
p763
aVcabinet
p764
aVdesktop
p765
aVadults
p766
aVrestroom
p767
aVpicnic
p768
aVtoward
p769
aVrug
p770
aVgo
p771
aVsame
p772
aVchristmas
p773
aVfoods
p774
aVbackpack
p775
aVblender
p776
aVgarden
p777
aVthrow
p778
aVcluttered
p779
aVgames
p780
aVseated
p781
aVpose
p782
aVget
p783
aVrace
p784
aVspace
p785
aVshorts
p786
aVrocky
p787
aVtomatoes
p788
aVvan
p789
aVpointing
p790
aVice
p791
aVclothes
p792
aVdesert
p793
aVsee
p794
aVstainless
p795
aVtrash
p796
aVmonitors
p797
aVfoot
p798
aVassortment
p799
aVboarding
p800
aVcontrollers
p801
aVwire
p802
aVmother
p803
aVswings
p804
aVwhich
p805
aVhighway
p806
aVamong
p807
aVceiling
p808
aVbun
p809
aVcolors
p810
aVeyes
p811
aVumpire
p812
aVledge
p813
aVwooded
p814
aVbusiness
p815
aVskies
p816
aVfacing
p817
aVarranged
p818
aVlone
p819
aVcage
p820
aVpond
p821
aVassorted
p822
aVnarrow
p823
aVeggs
p824
aVoutdoors
p825
aVcloseup
p826
aVvegetable
p827
aVsunglasses
p828
aVfancy
p829
aVshelves
p830
aVsteps
p831
aVonions
p832
aVconstruction
p833
aVroof
p834
aVurinals
p835
aVbottom
p836
aVcouches
p837
aVties
p838
aVoverlooking
p839
aVjumps
p840
aVobject
p841
aVdoes
p842
aVhillside
p843
aVdessert
p844
aVcurtain
p845
aVthings
p846
aVpots
p847
aVmid
p848
aVfish
p849
aVpasta
p850
aVcoat
p851
aVdrives
p852
aVteam
p853
aVelectronic
p854
aVdrawn
p855
aVevent
p856
aVreads
p857
aVbefore
p858
aVpaddle
p859
aVhimself
p860
aVgold
p861
aVfriends
p862
aVplain
p863
aVharbor
p864
aVcommuter
p865
aVclouds
p866
aVmessy
p867
aVoverhead
p868
aVcups
p869
aVturn
p870
aVboarder
p871
aVsale
p872
aVtied
p873
aVgraze
p874
aVleather
p875
aVcarrot
p876
aVsays
p877
aVship
p878
aVparty
p879
aVnew
p880
aVfeatures
p881
aVwetsuit
p882
aVpalm
p883
aVlunch
p884
aVglove
p885
aVgate
p886
aVrider
p887
aVsides
p888
aVtransit
p889
aVkneeling
p890
aVhold
p891
aVveggies
p892
aVsuits
p893
aVracing
p894
aVkind
p895
aVshade
p896
aVclosed
p897
aVwas
p898
aVlow
p899
aVtype
p900
aVpastry
p901
aVeats
p902
aVstairs
p903
aVland
p904
aVappears
p905
aVmake
p906
aVpartially
p907
aVaction
p908
aVgarage
p909
aVbroken
p910
aVmachine
p911
aVwide
p912
aVcloth
p913
aVrest
p914
aVscooter
p915
aVtan
p916
aVbite
p917
aVlies
p918
aVlawn
p919
aVpans
p920
aVmilk
p921
aVhole
p922
aVblurry
p923
aVsnowboarding
p924
aVwheel
p925
aVnet
p926
aVincludes
p927
aVheld
p928
aVwalkway
p929
aVwhat
p930
aVtomato
p931
aVsmart
p932
aVused
p933
aVpepperoni
p934
aVdecorative
p935
aVshort
p936
aVtoddler
p937
aVclothing
p938
aVfloors
p939
aVloaded
p940
aVpie
p941
aVisland
p942
aVbaked
p943
aVmodel
p944
aVoutfit
p945
aVbride
p946
aVmilitary
p947
aVcakes
p948
aVphotos
p949
aVrural
p950
aVbow
p951
aVmeters
p952
aVturned
p953
aVantique
p954
aVstill
p955
aVrests
p956
aVdeck
p957
aVdoll
p958
aVcover
p959
aVbeneath
p960
aVcarpet
p961
aVfarm
p962
aVlettuce
p963
aVlanding
p964
aVleash
p965
aVurban
p966
aVpier
p967
aVthese
p968
aVstreets
p969
aVdisc
p970
aVkinds
p971
aVmakes
p972
aVarms
p973
aVsea
p974
aVbunches
p975
aVtowels
p976
aVpants
p977
aVcolor
p978
aVselfie
p979
aVitself
p980
aVcontainers
p981
aVhere
p982
aVheads
p983
aVlift
p984
aVrackets
p985
aVriders
p986
aVsail
p987
aVfrosting
p988
aVtoilets
p989
aVbacon
p990
aVpastries
p991
aVfashioned
p992
aVapartment
p993
aVdevice
p994
aVear
p995
aVstructure
p996
aVkicking
p997
aVpedestrians
p998
aVbeans
p999
aa(dp1000
g675
I675
sg319
I319
sg781
I781
sg790
I790
sg164
I164
sg798
I798
sg106
I106
sg223
I223
sg284
I284
sg666
I666
sg243
I243
sg479
I479
sg154
I154
sg248
I248
sg395
I395
sg690
I690
sg686
I686
sg287
I287
sg646
I646
sg48
I48
sg893
I893
sg11
I10
sg670
I670
sg230
I230
sg994
I994
sg139
I139
sg779
I779
sg621
I621
sg975
I975
sg105
I105
sg21
I21
sg777
I777
sg12
I11
sg136
I136
sg844
I844
sg502
I502
sg188
I188
sg713
I713
sg710
I710
sg867
I867
sg730
I730
sg754
I754
sg507
I507
sg679
I679
sg843
I843
sg645
I645
sg866
I866
sg837
I837
sg100
I100
sg96
I96
sg810
I810
sg458
I458
sg27
I27
sg402
I402
sg602
I602
sg762
I762
sg853
I853
sg37
I37
sg307
I307
sg633
I633
sg792
I792
sg977
I977
sg350
I350
sg184
I184
sg892
I892
sg616
I616
sg257
I257
sg990
I990
sg54
I54
sg425
I425
sg771
I771
sg22
I22
sg296
I296
sg279
I279
sg756
I756
sg973
I973
sg693
I693
sg58
I58
sg930
I930
sg704
I704
sg170
I170
sg70
I70
sg493
I493
sg888
I888
sg550
I550
sg57
I57
sg859
I859
sg579
I579
sg168
I168
sg332
I332
sg333
I333
sg691
I691
sg233
I233
sg880
I880
sg667
I667
sg776
I776
sg894
I894
sg160
I160
sg141
I141
sg304
I304
sg217
I217
sg653
I653
sg624
I624
sg83
I83
sg760
I760
sg761
I761
sg261
I261
sg50
I50
sg193
I193
sg993
I993
sg55
I55
sg115
I115
sg463
I463
sg671
I671
sg586
I586
sg216
I216
sg734
I734
sg293
I293
sg82
I82
sg377
I377
sg398
I398
sg229
I229
sg956
I956
sg351
I351
sg524
I524
sg787
I787
sg325
I325
sg908
I908
sg947
I947
sg823
I823
sg972
I972
sg709
I709
sg696
I696
sg618
I618
sg553
I553
sg588
I588
sg434
I434
sg565
I565
sg889
I889
sg655
I655
sg252
I252
sg731
I731
sg364
I364
sg526
I526
sg895
I895
sg482
I482
sg16
I15
sg804
I804
sg97
I97
sg623
I623
sg546
I546
sg961
I961
sg374
I374
sg14
I13
sg985
I985
sg19
I19
sg419
I419
sg240
I240
sg868
I868
sg593
I593
sg706
I706
sg900
I900
sg863
I863
sg209
I209
sg687
I687
sg288
I288
sg35
I35
sg449
I449
sg470
I470
sg109
I109
sg705
I705
sg315
I315
sg386
I386
sg207
I207
sg922
I922
sg573
I573
sg986
I986
sg197
I197
sg630
I630
sg310
I310
sg46
I46
sg492
I492
sg89
I89
sg138
I138
sg134
I134
sg499
I499
sg763
I763
sg834
I834
sg42
I42
sg457
I457
sg542
I542
sg678
I678
sg497
I497
sg942
I942
sg400
I400
sg368
I368
sg835
I835
sg511
I511
sg208
I208
sg520
I520
sg363
I363
sg774
I774
sg876
I876
sg297
I297
sg322
I322
sg241
I241
sg821
I821
sg215
I215
sg658
I658
sg514
I514
sg916
I916
sg263
I263
sg673
I673
sg144
I144
sg226
I226
sg832
I832
sg262
I262
sg921
I921
sg911
I911
sg247
I247
sg429
I429
sg399
I399
sg137
I137
sg281
I281
sg886
I886
sg937
I937
sg73
I73
sg65
I65
sg256
I256
sg181
I181
sg637
I637
sg962
I962
sg490
I490
sg662
I662
sg601
I601
sg873
I873
sg291
I291
sg133
I133
sg996
I996
sg436
I436
sg644
I644
sg198
I198
sg571
I571
sg569
I569
sg10
I9
sVa
I0
sg358
I358
sg628
I628
sg685
I685
sg158
I158
sg190
I190
sg902
I902
sg540
I540
sg126
I126
sg896
I896
sg846
I846
sg537
I537
sg191
I191
sg427
I427
sg676
I676
sg52
I52
sg251
I251
sg920
I920
sg617
I617
sg719
I719
sg554
I554
sg496
I496
sg957
I957
sg85
I85
sg769
I769
sg444
I444
sg460
I460
sg928
I928
sg301
I301
sg107
I107
sg271
I271
sg269
I269
sg224
I224
sg932
I932
sg278
I278
sg955
I955
sg149
I149
sg161
I161
sg723
I723
sg32
I32
sg451
I451
sg775
I775
sg872
I872
sV,
I18
sg521
I521
sg124
I124
sg175
I175
sg132
I132
sg267
I267
sg661
I661
sg221
I221
sg253
I253
sg361
I361
sg61
I61
sg958
I958
sg814
I814
sg448
I448
sg462
I462
sg512
I512
sg606
I606
sg471
I471
sg118
I118
sg578
I578
sg375
I375
sg40
I40
sg820
I820
sg213
I213
sg420
I420
sg674
I674
sg349
I349
sg732
I732
sg469
I469
sg864
I864
sg939
I939
sg464
I464
sg788
I788
sg129
I129
sg484
I484
sg960
I960
sg353
I353
sg67
I67
sg255
I255
sg758
I758
sg212
I212
sg259
I259
sg352
I352
sg849
I849
sg587
I587
sg631
I631
sg475
I475
sg518
I518
sg180
I180
sg95
I95
sg583
I583
sg405
I405
sg568
I568
sg87
I87
sg123
I123
sg367
I367
sg510
I510
sg672
I672
sg237
I237
sg785
I785
sg854
I854
sg410
I410
sg72
I72
sg784
I784
sg228
I228
sg912
I912
sg783
I783
sg47
I47
sg594
I594
sg121
I121
sg232
I232
sg196
I196
sg143
I143
sg544
I544
sg874
I874
sg622
I622
sg757
I757
sg657
I657
sg176
I176
sg728
I728
sg697
I697
sg516
I516
sg830
I830
sg522
I522
sg94
I94
sg933
I933
sg759
I759
sg870
I870
sg220
I220
sg638
I638
sg934
I934
sg455
I455
sg924
I924
sg163
I163
sg472
I472
sg917
I917
sg428
I428
sg337
I337
sg62
I62
sg881
I881
sg847
I847
sg439
I439
sg589
I589
sg412
I412
sg829
I829
sg116
I116
sg748
I748
sg963
I963
sg548
I548
sg205
I205
sg838
I838
sg392
I392
sg869
I869
sg130
I130
sg265
I265
sg166
I166
sg80
I80
sg103
I103
sg390
I390
sg983
I983
sg182
I182
sg403
I403
sg316
I316
sg611
I611
sg30
I30
sg430
I430
sg533
I533
sg108
I108
sg965
I965
sg210
I210
sg236
I236
sg538
I538
sg988
I988
sg20
I20
sg727
I727
sg341
I341
sg365
I365
sg931
I931
sg808
I808
sg969
I969
sg411
I411
sg25
I25
sg466
I466
sg527
I527
sg131
I131
sg970
I970
sg936
I936
sg195
I195
sg903
I903
sg724
I724
sg634
I634
sg626
I626
sg295
I295
sg343
I343
sg125
I125
sg440
I440
sg69
I69
sg235
I235
sg334
I334
sg946
I946
sg712
I712
sg950
I950
sg505
I505
sg541
I541
sg545
I545
sg8
I7
sg360
I360
sg858
I858
sg204
I204
sg752
I752
sg426
I426
sg953
I953
sg811
I811
sg323
I323
sg825
I825
sg563
I563
sg901
I901
sg435
I435
sg500
I500
sg747
I747
sg604
I604
sg249
I249
sg935
I935
sg702
I702
sg642
I642
sg786
I786
sg74
I74
sg173
I173
sg480
I480
sg485
I485
sg487
I487
sg663
I663
sg744
I744
sg64
I64
sg391
I391
sg887
I887
sg290
I290
sg417
I417
sg474
I474
sg543
I543
sg200
I200
sg258
I258
sg650
I650
sg824
I824
sg312
I312
sg372
I372
sg567
I567
sg926
I926
sg285
I285
sg944
I944
sg254
I254
sg991
I991
sg577
I577
sg919
I919
sg913
I913
sg456
I456
sg486
I486
sg335
I335
sg44
I44
sg329
I329
sg805
I805
sg477
I477
sg720
I720
sg750
I750
sg736
I736
sg357
I357
sg242
I242
sg56
I56
sg559
I559
sg152
I152
sg861
I861
sg753
I753
sg260
I260
sg929
I929
sg506
I506
sg491
I491
sg503
I503
sg68
I68
sg331
I331
sg508
I508
sg282
I282
sg609
I609
sg560
I560
sg206
I206
sg733
I733
sg692
I692
sg340
I340
sg915
I915
sg114
I114
sg280
I280
sg39
I39
sg629
I629
sg43
I43
sg669
I669
sg84
I84
sg45
I45
sg41
I41
sg321
I321
sg300
I300
sg275
I275
sg146
I146
sg489
I489
sg102
I102
sg619
I619
sg383
I383
sg418
I418
sg711
I711
sg266
I266
sg648
I648
sg406
I406
sg388
I388
sg185
I185
sg596
I596
sg688
I688
sg318
I318
sg612
I612
sg875
I875
sg871
I871
sg452
I452
sg382
I382
sg981
I981
sg682
I682
sg654
I654
sg306
I306
sg664
I664
sg119
I119
sg308
I308
sg768
I768
sg459
I459
sg525
I525
sg273
I273
sg414
I414
sg794
I794
sg104
I104
sg18
I17
sg974
I974
sg187
I187
sg201
I201
sg140
I140
sg749
I749
sg802
I802
sg328
I328
sg519
I519
sg737
I737
sg987
I987
sg656
I656
sg283
I283
sg882
I882
sg145
I145
sg313
I313
sg897
I897
sg393
I393
sg855
I855
sg891
I891
sg598
I598
sg244
I244
sg966
I966
sg708
I708
sg989
I989
sg378
I378
sg742
I742
sg945
I945
sg607
I607
sg997
I997
sg336
I336
sg982
I982
sg751
I751
sg380
I380
sg342
I342
sg60
I60
sg729
I729
sg66
I66
sg270
I270
sg330
I330
sg128
I128
sg211
I211
sg376
I376
sg856
I856
sg303
I303
sg767
I767
sg356
I356
sg780
I780
sg879
I879
sg557
I557
sg677
I677
sg807
I807
sg636
I636
sg782
I782
sg371
I371
sg127
I127
sg584
I584
sg582
I582
sg348
I348
sg591
I591
sg250
I250
sg976
I976
sg665
I665
sg23
I23
sg765
I765
sg239
I239
sg159
I159
sg53
I53
sg716
I716
sg979
I979
sg189
I189
sg338
I338
sg79
I79
sg517
I517
sV.
I1
sg481
I481
sg528
I528
sg845
I845
sg292
I292
sg721
I721
sg264
I264
sg317
I317
sg590
I590
sg498
I498
sg547
I547
sg865
I865
sg605
I605
sg148
I148
sg755
I755
sg938
I938
sg562
I562
sg949
I949
sg523
I523
sg984
I984
sg791
I791
sg156
I156
sg535
I535
sg828
I828
sg433
I433
sg904
I904
sg531
I531
sg354
I354
sg694
I694
sg385
I385
sg813
I813
sg968
I968
sg276
I276
sg401
I401
sg603
I603
sg135
I135
sg286
I286
sg38
I38
sg816
I816
sg461
I461
sg714
I714
sg625
I625
sg9
I8
sg473
I473
sg26
I26
sg572
I572
sg362
I362
sg219
I219
sg857
I857
sg980
I980
sg326
I326
sg6
I5
sg225
I225
sg92
I92
sg408
I408
sg878
I878
sg558
I558
sg177
I177
sg597
I597
sg186
I186
sg718
I718
sg906
I906
sg174
I174
sg467
I467
sg772
I772
sg615
I615
sg245
I245
sg827
I827
sg314
I314
sg90
I90
sg396
I396
sg438
I438
sg925
I925
sg77
I77
sg432
I432
sg501
I501
sg852
I852
sg476
I476
sg178
I178
sg339
I339
sg274
I274
sg494
I494
sg478
I478
sg799
I799
sg227
I227
sg940
I940
sg441
I441
sg218
I218
sg147
I147
sg445
I445
sg504
I504
sg722
I722
sg681
I681
sg165
I165
sg29
I29
sg298
I298
sg394
I394
sg549
I549
sg703
I703
sg5
I4
sg643
I643
sg431
I431
sg222
I222
sg613
I613
sg214
I214
sg183
I183
sg99
I99
sg379
I379
sg948
I948
sg465
I465
sg848
I848
sg717
I717
sg746
I746
sg614
I614
sg914
I914
sg384
I384
sg627
I627
sg649
I649
sg483
I483
sg600
I600
sg389
I389
sg556
I556
sg309
I309
sg967
I967
sg509
I509
sg151
I151
sg421
I421
sg91
I91
sg683
I683
sg387
I387
sg415
I415
sg117
I117
sg534
I534
sg595
I595
sg51
I51
sg268
I268
sg632
I632
sg347
I347
sg113
I113
sg162
I162
sg78
I78
sg680
I680
sg951
I951
sg407
I407
sg93
I93
sg172
I172
sg155
I155
sg120
I120
sg294
I294
sg610
I610
sg344
I344
sg311
I311
sg978
I978
sg442
I442
sg447
I447
sg725
I725
sg366
I366
sg660
I660
sg299
I299
sg684
I684
sg639
I639
sg885
I885
sg801
I801
sg909
I909
sg831
I831
sg320
I320
sg701
I701
sg171
I171
sg954
I954
sg707
I707
sg142
I142
sg608
I608
sg289
I289
sg17
I16
sg28
I28
sg167
I167
sg409
I409
sg883
I883
sg179
I179
sg359
I359
sg803
I803
sg817
I817
sg397
I397
sg76
I76
sg836
I836
sg443
I443
sg995
I995
sg413
I413
sg641
I641
sg842
I842
sg373
I373
sg773
I773
sg422
I422
sg345
I345
sg877
I877
sg841
I841
sg111
I111
sg815
I815
sg700
I700
sg840
I840
sg515
I515
sg770
I770
sg910
I910
sg738
I738
sg850
I850
sg726
I726
sg570
I570
sg890
I890
sg49
I49
sg806
I806
sg826
I826
sg3
I2
sg346
I346
sg555
I555
sg305
I305
sg4
I3
sg446
I446
sg576
I576
sg585
I585
sg199
I199
sg574
I574
sg81
I81
sg715
I715
sg153
I153
sg530
I530
sg31
I31
sg918
I918
sg651
I651
sg495
I495
sg327
I327
sg789
I789
sg88
I88
sg101
I101
sg795
I795
sg202
I202
sg86
I86
sg819
I819
sg231
I231
sg743
I743
sg905
I905
sg488
I488
sg899
I899
sg192
I192
sg277
I277
sg898
I898
sg923
I923
sg454
I454
sg513
I513
sg238
I238
sg860
I860
sg246
I246
sg63
I63
sg739
I739
sg580
I580
sg964
I964
sg764
I764
sg416
I416
sg833
I833
sg809
I809
sg999
I999
sg468
I468
sg355
I355
sg539
I539
sg7
I6
sg552
I552
sg404
I404
sg800
I800
sg778
I778
sg381
I381
sg818
I818
sg157
I157
sg453
I453
sg33
I33
sg532
I532
sg620
I620
sg652
I652
sg659
I659
sg370
I370
sg112
I112
sg952
I952
sg234
I234
sg272
I272
sg695
I695
sg75
I75
sg766
I766
sg959
I959
sg812
I812
sg941
I941
sg592
I592
sg13
I12
sg668
I668
sg122
I122
sg575
I575
sg15
I14
sg992
I992
sg450
I450
sg699
I699
sg740
I740
sg907
I907
sg735
I735
sg698
I698
sg424
I424
sg194
I194
sg369
I369
sg822
I822
sg302
I302
sg797
I797
sg34
I34
sg71
I71
sg24
I24
sg203
I203
sg796
I796
sg551
I551
sg599
I599
sg98
I98
sg110
I110
sg971
I971
sg635
I635
sg529
I529
sg927
I927
sg884
I884
sg581
I581
sg689
I689
sg423
I423
sg561
I561
sg862
I862
sg793
I793
sg741
I741
sg59
I59
sg851
I851
sg324
I324
sg839
I839
sg169
I169
sg998
I998
sg640
I640
sg647
I647
sg150
I150
sg437
I437
sg745
I745
sg36
I36
sg536
I536
sg566
I566
sg943
I943
sg564
I564
sacnumpy.core.multiarray
_reconstruct
p1001
(cnumpy
ndarray
p1002
(I0
tS'b'
tRp1003
(I1
(I256
tcnumpy
dtype
p1004
(S'f8'
I0
I1
tRp1005
(I3
S'<'
NNNI-1
I-1
I0
tbI00
S'7\x1e\xc3J\xabD\x8d?\xe1\xef*\x18\xdaHa\xbf\x01\x99\x8b7\x10\xf7\x80?\xd1\x11\x172\xab9r\xbf9\x97\xc2>\xb0w\x8f\xbf\x18\xdf\x1b\x00\x0eWp\xbf|\x98\xfdy\xc2\xa7\x8c?~\xa7\xc1\x88\xcd\x8e\x8b?v\xc2\xfa\xb8\xbe\x17|?<\r\xf0y\xad\xe7\xa0\xbfu!\xbb\xc6B\x93\x89\xbf\x85\xf4\x98\xe5\x0e\xac\x95\xbf\xa8\xccI\x80\x8d\xbfm\xbf\xbc\xd4\xc0\xc8\xed\xe6\x84\xbf\x98\x91\x1f\x96P\x8e\x84\xbf\xda\xad\xa9\xc2\xf2\x1aq\xbf\xc7g\xf4\x8aD\xfe\x92\xbf\xce\xa1\xed\xa9\xfcP\x8c?\x9f\x1d>\xf53\x12U\xbfL\xb7i\xec\xd1\xa0\x85?#-\x87\x88WZ\x87\xbf;\xa5\xe2\xb7\xfa\xe3\x08?\xa5\xbeq\x86\xdf\xeep\xbf<e\xb9\xda(\xf6|\xbf\th\xc6^\xf2YZ?\xf8\xa3+Z\x81\x03k\xbf\x9c=\xad\xfe\xda\xd2X?\xd5~\xcd\xc0\x04\xeb|?\xc1\x90r/\xa7\np\xbf\x9e\xee\xac\xf6\x16R{?HY\xe6\xa4>\xd5\x84?\xa5\x1f\x0e5\x90\xa1!\xbf\xca6\xe9\xe7\x9fQm\xbfF\xac[\xf2\xf1dP\xbf\x91\xc3:\xd2\x8cqz?*\xbar\x11[\x16k?#\xde\xc6\xb5\xc16\x81?!@\x9bk\xdbF\x91?\xe0|\xe3\xfb\xfc\x81\x89?\x92s[\x0cY\x1b\x95\xbf\xa0V\x03.\xbd{l\xbf\xa7\xd8\xd3r~\x11|?\x9e\x1e\x89\x05.\xe4\x89?3{@6\x95\x8f\x8f\xbf!\x14\xa3D \x1c\x84?\xea\x88\x98\x93"S\x91\xbfZ\x13\xf5$\x82\xe1e\xbf\x87C\xd1?\xec\xb6S?\x1b\xb7>\xa99\xdaF?\x95/\x9d8{~\x80? hP0s!|\xbf\x8c\xc3b\xc0\xb34u?\xd7+\xa2Ez3~?\xdbD\xbf,0O\x8d?\x07%\xa3\x08\x18\x01\x84\xbf\xffA\x91\x80\xf0\xb3|\xbfl\xb5\xfc\xc5\xbb\xc2s\xbf\xa8Y\xee\x95\xb5\x19\x80\xbf\xaf\\\xa0<\x94\xb8s?E)\xd2\xe9\xfc\xdap\xbf\x90\x8a\xd4%\xc7\xd9M\xbf\xc3\x03j\xb30\xb6\x97\xbfcH\xa6Z\xedm\x82\xbf\xe5Q\x8f\xf6d\x1a&\xbf\xad\xe5\x87\xd1)\r~\xbf\x0e\x16UD\'b\x94\xbfI\xf0\xab\xb6\xc5\x15\x89\xbf\xe7z\xdb\x18\xfd\xd6w\xbf\x9a\xa1\x00\x7f\xaa\xb9t?z\xc0\xe7\r\xda\x9ft\xbf.\xeb\x1f;I\xf1\x8b\xbfE/\x88\xd5X\x07\x85?\xa3\xef&P\x07\xb2E\xbfu\xc8\x93\x93\xbc\x05\x91\xbfG\xaf\xfb[\x0e\xb6L\xbf\xc1\x95\xdb\x85F\xa8\x94\xbf\xae\'\n\x81\x18\x80{?\xe8\xa5[\xa7\x1e-\x8d\xbf\x8a\xf8\xc7\x1c\xfax\x8b?&\xf9\x9c\r\x0c\xac\x92\xbf\x1a\x1bqA\xa0\x98q\xbfkk\x86/\xa5\xe8\x81\xbf\xceZ\x93\xe6\xb5]q\xbf\xf8\xcd\x04\xe5\xb3\x03b\xbf\xda\xe5\x03\x12k\x0b\x94\xbf\xe5\x86W\xe7D\x1b\x81\xbf\\\x98p\xe7\xcd\x9d\x87\xbf\xd3B\xee\x10\x87\xf3\x8e\xbf?\x93^\xbc\xd1\x01\x81?\x08\x18\x86\x93\xdeO\x87\xbf\xf7$\x9d\xbc\x00\xed\x8e?R&\x92\xf5\x11K\x88?\xb7\xa0\x82\xf0\x0eI\x84?\xeaf]\xee\xd5\x13r?\xd8(\xccEc\xf8A\xbfZj\x12\x1b\xdfg{?\xca\x8c1\xc3\xd2\xcfw?X\xe2kR\xd2X\x85?2\x05\xdc\xff\x83\xb0\x8c\xbf\xb5\xe4\xd4\xf5\xb0\x97j?!b6\xec\xeey\x81?\xd6\xd7\xabN>r\x8c\xbf\x83\x04l^\x9d\xbdh\xbf\xc3h*\xa2P\xa0\x94?\xd7F\xa8z\xb3\xe3\x8d\xbf\x9b\xae\xce\xa9\xc6\xa7y?\t\xf9\x96\xa7G\x07x?7(\x9d\x92\xf6\xdc\x81?\xdb,d\xa8\xb9\xf8d\xbfR5x\xf0J\xe6*\xbf\x05\xa6\xb4\xeb\xa3eD\xbf\xd8\x1fq\xa9\t\xff\x82?\xd7T\xf0q\xe8\xef\x85\xbf\xf2B\xd4\xde\xb2\x0f\x82?\xd6G\x0f\xe5\xae]\x80\xbfLN\xfd\xb1\xf4{\x8b\xbf\xc5\x9c&\x84DX{\xbf\xd5kE\x12\xd2\xc0w?\xa1\xd7h5\x93=s\xbf\xa0\x98\xcc\n\xf3\x8aj?\x87\xdb\x90\xb58_z\xbfF\x9f\xe4\x9dtMp\xbf\xb8\x06\xa7;\xffet?\xa3\x7f\x8b(\xf1\xe5t?\xbb^\xc1 \\\x92\x8e?\xb1\xee\xf1\xec\x9b\xfc\x99?Z\x80c\x02\xdc\xae>\xbf\x81\xe0*\xb3,\x06R?6\x8c\xf2\xde3\xb6>\xbf\x1fA)\xbe\'Px?\xc1*\xf8BPGA\xbf\xcc$\x16^\xa5\nz?\x1e79nC-g?\xa3w_\x08\xbe\x0be\xbf\xec\xc9aOaqs?\xfc;\xcbi\x92R\x85?S{V \x89\x15~?I=U\x8d\xdc\n\x91?\xf1\x0e\x8e\xd6\x14XG\xbf5\xf4\xfb\xbez\xe5X?\xf4\xd5\x9f\xaa\x8d\n\x80?\xc5\x97\xf8v\x95\xb4i\xbf\xa8\x91\xefe\x84\x9bv\xbf\x98J\x93\x10\x83\n}?J}Wm|~a\xbf\xdfZ\x9f\x91x\xc6s\xbf\xc95G\xb7{\xe3v\xbfGXHG\x8c\xb1w\xbfny3Z@U\x91\xbfuT\xde\xfa\xa8\x90\x84\xbfM\xed\x90\xb5?\xd7y?J\xaa\xfcE\xa8\xf5\x8a?\xfa\x91LM\xf4%z?\xc7\xbe\xa7\xaf\x8a\xd1\x87\xbf\xb3,\x92\x8f\xc7R]\xbf\xc3Vb\xa1\xc7\xf5Y?\xda6\x90\x05\xbd\xa9{?z\x96\x93\x06;\x10\x9f?=vz\ndr\x90?c\xa8\xc2\\\xd1\x98Q?Y\xf1\xc3\xb5\x80N\x90?\x87q/\xe4\x9ce}?\xb8\x9e96iFv?V\x9d\xc9\xf5\xf7\\n?\x01\xfc\xf3\xf9cGH\xbf\r\xc5\xc4\xda\t\x99y\xbf\x19\x99\xd3\xb7A\xa4p\xbfP\t\xd4\xd3\xe0\x8bo?\x13G\xd11Cx|\xbf\x11,\x9f\xfb\xd9\x1f\x83\xbfl\xd4=\xfa\xf2\x81{\xbf\x0b%\xdf\xa1t[\x84\xbf\x89;\xba\xb9\xc1&j\xbf\xdc\xe88\x91y\xc8y?\x0c\xe2\xdb\x9aEt\x85\xbf\x03\x81\x9d\xae\x153\x81\xbf\xca\xe7(N\x05\xd1y?~\xd9l\xf3\x8e\x9bZ\xbf\xf5\xaeKi\xf9\xb9\x82\xbf\x11[y\xfb\xc5\xf7w?\xf6U4M\x17\x1fo?h\xe1\xa8\x84\xf1R\x8e\xbf\xe7P\xedN\xef.F\xbf\xc1\x88\xf4\x0eg@\x8a?8vE\x98\x94\xff\x98?G\x9d8\r\x9arr\xbf\tdCS\x029U\xbf\x10\x0e\xdc\xaf\x1c}\x8c?*E,\x82ok`\xbf5\xe2\xd0\xe90\xc6y\xbf\x12\xdf\x92\x0c\xec\xa8i?\x8fc\xdb\xba\xa1\x14\x84\xbf\xaaj\xed\xb8\xf5\x83d\xbfR\xf0\xa2QGA[?\xf7;\x9es\x85\x92{\xbf\x99p\x9e\x84s\xde~?\xed\xdf4thw\x99\xbf\x02%\xa3x\x87\x06p\xbf\x0f\xc5Z\xd5(\x8c\x81?\xe4/as\xb3\xe3O?\x1b\x1ag\x1cek\x80\xbf\xe5;\xf3\x98\xd7\xf9x?As\x93\x93W\x10u?$\xc9\x96"\xa7\xb1u\xbfI\r\x8d\xa9\xda\xa4\x88\xbf9\x80\x04P\xf5\xa2o?n\x895W\xaa\xa0\x82\xbf\xb356\x1c*]\x81\xbf\x9f\x8b^\xc6[:j\xbf8\xfbtvO,\x8e\xbf\x85\xb2\xa3b\x99\xc7\x86?\x1bQ\xbc\xda<\xba\x9a?b\x9c\xfa/\xa0\x9c\x80?\xbc%:\xe5\xde\x832?!5\xea4v\x05w?d\xa4\xab\xaf\'\n\x85?-\xc4\x9d\xb2\x8e\xeff\xbf\x1f\xa1#\x99y\x13\x84?\x89\xac\x98\xdb\x81\x16x?S\xe4\xaa\x8ac:r\xbfe\xd5JV@\xf4\x8e?;\xb40\x9b\xcd\xa5\x89?R?\xd7\xff\xab/\x84?JY\xa9\x1e\x00\x0c\x8f?\x9f\x7fP\xe8[(v?g\xa8\xb2rO\xf2\x89?\xb2\xae\x1fv\xb4\xe1K?\x8e\xdb\xa4p\xbac{?!\x10\xcd\xf5\xf4\xe5\x87?\'\xed_W1\xd8R?\xc7e\x8c\x01\xc4\xad\x84?Q\x15\xe1?\x9dpl\xbf\x89-}\x95\x1b\x8ce\xbf\xa0\x97\xa2x\x17\xbd{\xbf:\xecY\xb3\x0e\x97y\xbf2\xba\x0b\xbe\xda\xbd\x7f\xbfK\xa5\xbf\x9d\x968\x80\xbf\x12\xaa\xc9\x13\xda\xff[?3/\xa3v\x8f\x17c\xbf\xa16oc\xb9\x9e\x81\xbfU\x96\x7fHoZ\x8a\xbf\nhO\xf2&^\x88?\x01}\x9a\\cxs\xbf\x80\x9a\xfcc%(b\xbf\x04\xae\xf61}\xfc\x81?5\xcdW\xefs2\x96\xbf\x03f!z}\xb6d\xbf<\\cl\x97EO\xbf\xaan\xb1\n\xb3\x98w?\xce\x01\xd8\xdb`\xe1Q\xbf\x99\x80\xc0\x00?Z\x83\xbf\xd7\xad@\rq\xbc\x8d\xbf6\xe9\xed\x04\x1f3\x8e?w\xc1XA\xb8J\x82?\x1d\xf7\xed\x03\xc2k\x81\xbf\x84\xfa^[\xc79F\xbf'
tbaI1000
aI256
aI20
a.